target datalayout = "e-m:e-p270:32:32-p271:32:32-p272:64:64-i64:64-i128:128-f80:128-n8:16:32:64-S128"
target triple = "x86_64-pc-linux-gnu"

%class.G1CardSetConfiguration = type { i32, i32, i32, i32, i32, i32, i32, i32, i32, i32, i32, ptr }
%class.G1CardSetAllocOptions = type { %"class.G1MonotonicArena::AllocOptions.base", [4 x i8] }
%"class.G1MonotonicArena::AllocOptions.base" = type <{ ptr, i8, [3 x i8], i32, i32, i32, i32 }>
%class.G1CardSetContainer = type { i64 }
%class.G1CardSetArray = type <{ %class.G1CardSetContainer, i32, i32, [1 x i16], [6 x i8] }>
%class.G1CardSetHowl = type { %class.G1CardSetContainer, i32, [1 x ptr] }
%class.G1CardSetBitMap = type { %class.G1CardSetContainer, i64, [1 x i64] }
%"class.G1MonotonicArena::AllocOptions" = type <{ ptr, i8, [3 x i8], i32, i32, i32, i32, [4 x i8] }>
%class.anon.9 = type { i8 }
%class.anon.10 = type { i8 }
%class.anon.12 = type { i8 }

@_ZTV21G1CardSetAllocOptions = linkonce_odr hidden unnamed_addr constant { [3 x ptr] } { [3 x ptr] [ptr null, ptr null, ptr @_ZNK21G1CardSetAllocOptions14next_num_slotsEj] }, comdat, align 8
@_ZTVN16G1MonotonicArena12AllocOptionsE = linkonce_odr hidden unnamed_addr constant { [3 x ptr] } { [3 x ptr] [ptr null, ptr null, ptr @_ZNK16G1MonotonicArena12AllocOptions14next_num_slotsEj] }, comdat, align 8

; Function Attrs: mustprogress nounwind uwtable
define linkonce_odr hidden noundef i64 @_ZN6BitMap23raw_to_words_align_downEm(i64 noundef %0) #1 comdat align 2 {
  %2 = alloca i64, align 8
  store i64 %0, ptr %2, align 8
  %3 = load i64, ptr %2, align 8
  %4 = lshr i64 %3, 6
  ret i64 %4
}

; Function Attrs: mustprogress nounwind uwtable
define linkonce_odr hidden noundef i32 @_Z10align_downIjjTnNSt9enable_ifIXcvbsr3std11is_integralIT_EE5valueEiE4typeELi0EES1_S1_T0_(i32 noundef %0, i32 noundef %1) #1 comdat {
  %3 = alloca i32, align 4
  %4 = alloca i32, align 4
  %5 = alloca i32, align 4
  store i32 %0, ptr %3, align 4
  store i32 %1, ptr %4, align 4
  %6 = load i32, ptr %3, align 4
  %7 = load i32, ptr %4, align 4
  %8 = call noundef i32 @_ZL14alignment_maskIjTnNSt9enable_ifIXcvbsr3std11is_integralIT_EE5valueEiE4typeELi0EES1_S1_(i32 noundef %7)
  %9 = xor i32 %8, -1
  %10 = and i32 %6, %9
  store i32 %10, ptr %5, align 4
  %11 = load i32, ptr %5, align 4
  ret i32 %11
}

; Function Attrs: mustprogress nounwind uwtable
define linkonce_odr hidden noundef i32 @_Z12checked_castIjjET_T0_(i32 noundef %0) #1 comdat {
  %2 = alloca i32, align 4
  %3 = alloca i32, align 4
  store i32 %0, ptr %2, align 4
  %4 = load i32, ptr %2, align 4
  store i32 %4, ptr %3, align 4
  %5 = load i32, ptr %3, align 4
  ret i32 %5
}

; Function Attrs: mustprogress nounwind uwtable
define internal noundef i32 @_ZL14alignment_maskIjTnNSt9enable_ifIXcvbsr3std11is_integralIT_EE5valueEiE4typeELi0EES1_S1_(i32 noundef %0) #1 {
  %2 = alloca i32, align 4
  store i32 %0, ptr %2, align 4
  %3 = load i32, ptr %2, align 4
  %4 = sub i32 %3, 1
  ret i32 %4
}

; Function Attrs: mustprogress nounwind uwtable
define linkonce_odr hidden noundef i64 @_ZZN13G1CardSetHowl20header_size_in_bytesEvENKUlvE_clEv(ptr noundef nonnull align 1 dereferenceable(1) %0) #1 comdat align 2 {
  %2 = alloca ptr, align 8
  %3 = alloca [24 x i8], align 16
  %4 = alloca ptr, align 8
  %5 = alloca ptr, align 8
  store ptr %0, ptr %2, align 8
  %6 = getelementptr inbounds [24 x i8], ptr %3, i64 0, i64 0
  store ptr %6, ptr %4, align 8
  %7 = load ptr, ptr %4, align 8
  %8 = getelementptr inbounds %class.G1CardSetHowl, ptr %7, i32 0, i32 2
  store ptr %8, ptr %5, align 8
  %9 = load ptr, ptr %5, align 8
  %10 = getelementptr inbounds [24 x i8], ptr %3, i64 0, i64 0
  %11 = ptrtoint ptr %9 to i64
  %12 = ptrtoint ptr %10 to i64
  %13 = sub i64 %11, %12
  ret i64 %13
}

; Function Attrs: mustprogress nounwind uwtable
define linkonce_odr hidden noundef i64 @_ZN6BitMap21raw_to_words_align_upEm(i64 noundef %0) #1 comdat align 2 {
  %2 = alloca i64, align 8
  store i64 %0, ptr %2, align 8
  %3 = load i64, ptr %2, align 8
  %4 = add i64 %3, 63
  %5 = call noundef i64 @_ZN6BitMap23raw_to_words_align_downEm(i64 noundef %4)
  ret i64 %5
}

; Function Attrs: mustprogress nounwind uwtable
define linkonce_odr hidden void @_ZN6BitMap11verify_sizeEm(i64 noundef %0) #1 comdat align 2 {
  %2 = alloca i64, align 8
  store i64 %0, ptr %2, align 8
  ret void
}

; Function Attrs: mustprogress nounwind uwtable
define linkonce_odr hidden noundef i64 @_ZZN15G1CardSetBitMap20header_size_in_bytesEvENKUlvE_clEv(ptr noundef nonnull align 1 dereferenceable(1) %0) #1 comdat align 2 {
  %2 = alloca ptr, align 8
  %3 = alloca [24 x i8], align 16
  %4 = alloca ptr, align 8
  %5 = alloca ptr, align 8
  store ptr %0, ptr %2, align 8
  %6 = getelementptr inbounds [24 x i8], ptr %3, i64 0, i64 0
  store ptr %6, ptr %4, align 8
  %7 = load ptr, ptr %4, align 8
  %8 = getelementptr inbounds %class.G1CardSetBitMap, ptr %7, i32 0, i32 2
  store ptr %8, ptr %5, align 8
  %9 = load ptr, ptr %5, align 8
  %10 = getelementptr inbounds [24 x i8], ptr %3, i64 0, i64 0
  %11 = ptrtoint ptr %9 to i64
  %12 = ptrtoint ptr %10 to i64
  %13 = sub i64 %11, %12
  ret i64 %13
}

; Function Attrs: mustprogress nounwind uwtable
define linkonce_odr hidden noundef i64 @_ZZN14G1CardSetArray20header_size_in_bytesEvENKUlvE_clEv(ptr noundef nonnull align 1 dereferenceable(1) %0) #1 comdat align 2 {
  %2 = alloca ptr, align 8
  %3 = alloca [24 x i8], align 16
  %4 = alloca ptr, align 8
  %5 = alloca ptr, align 8
  store ptr %0, ptr %2, align 8
  %6 = getelementptr inbounds [24 x i8], ptr %3, i64 0, i64 0
  store ptr %6, ptr %4, align 8
  %7 = load ptr, ptr %4, align 8
  %8 = getelementptr inbounds %class.G1CardSetArray, ptr %7, i32 0, i32 3
  store ptr %8, ptr %5, align 8
  %9 = load ptr, ptr %5, align 8
  %10 = getelementptr inbounds [24 x i8], ptr %3, i64 0, i64 0
  %11 = ptrtoint ptr %9 to i64
  %12 = ptrtoint ptr %10 to i64
  %13 = sub i64 %11, %12
  ret i64 %13
}

; Function Attrs: mustprogress nounwind uwtable
define linkonce_odr hidden noundef i32 @_Z8align_upIjjTnNSt9enable_ifIXcvbsr3std11is_integralIT_EE5valueEiE4typeELi0EES1_S1_T0_(i32 noundef %0, i32 noundef %1) #1 comdat {
  %3 = alloca i32, align 4
  %4 = alloca i32, align 4
  %5 = alloca i32, align 4
  store i32 %0, ptr %3, align 4
  store i32 %1, ptr %4, align 4
  %6 = load i32, ptr %3, align 4
  %7 = load i32, ptr %4, align 4
  %8 = call noundef i32 @_ZL14alignment_maskIjTnNSt9enable_ifIXcvbsr3std11is_integralIT_EE5valueEiE4typeELi0EES1_S1_(i32 noundef %7)
  %9 = add i32 %6, %8
  %10 = call noundef i32 @_Z12checked_castIjjET_T0_(i32 noundef %9)
  store i32 %10, ptr %5, align 4
  %11 = load i32, ptr %5, align 4
  %12 = load i32, ptr %4, align 4
  %13 = call noundef i32 @_Z10align_downIjjTnNSt9enable_ifIXcvbsr3std11is_integralIT_EE5valueEiE4typeELi0EES1_S1_T0_(i32 noundef %11, i32 noundef %12)
  ret i32 %13
}

; Function Attrs: mustprogress nounwind uwtable
define linkonce_odr hidden noundef i64 @_ZN13G1CardSetHowl20header_size_in_bytesEv() #1 comdat align 2 {
  %1 = alloca %class.anon.12, align 1
  %2 = call noundef i64 @_ZZN13G1CardSetHowl20header_size_in_bytesEvENKUlvE_clEv(ptr noundef nonnull align 1 dereferenceable(1) %1)
  ret i64 %2
}

; Function Attrs: mustprogress nounwind uwtable
define linkonce_odr hidden noundef i64 @_ZN6BitMap18calc_size_in_wordsEm(i64 noundef %0) #1 comdat align 2 {
  %2 = alloca i64, align 8
  store i64 %0, ptr %2, align 8
  %3 = load i64, ptr %2, align 8
  call void @_ZN6BitMap11verify_sizeEm(i64 noundef %3)
  %4 = load i64, ptr %2, align 8
  %5 = call noundef i64 @_ZN6BitMap21raw_to_words_align_upEm(i64 noundef %4)
  ret i64 %5
}

; Function Attrs: mustprogress nounwind uwtable
define linkonce_odr hidden noundef i64 @_ZN15G1CardSetBitMap20header_size_in_bytesEv() #1 comdat align 2 {
  %1 = alloca %class.anon.10, align 1
  %2 = call noundef i64 @_ZZN15G1CardSetBitMap20header_size_in_bytesEvENKUlvE_clEv(ptr noundef nonnull align 1 dereferenceable(1) %1)
  ret i64 %2
}

; Function Attrs: mustprogress nounwind uwtable
define linkonce_odr hidden noundef i64 @_ZN14G1CardSetArray20header_size_in_bytesEv() #1 comdat align 2 {
  %1 = alloca %class.anon.9, align 1
  %2 = call noundef i64 @_ZZN14G1CardSetArray20header_size_in_bytesEvENKUlvE_clEv(ptr noundef nonnull align 1 dereferenceable(1) %1)
  ret i64 %2
}

; Function Attrs: mustprogress nounwind uwtable
define linkonce_odr hidden void @_ZN16G1MonotonicArena12AllocOptionsC2E8MEMFLAGSjjjj(ptr noundef nonnull align 8 dereferenceable(28) %0, i8 noundef zeroext %1, i32 noundef %2, i32 noundef %3, i32 noundef %4, i32 noundef %5) unnamed_addr #1 comdat align 2 {
  %7 = alloca ptr, align 8
  %8 = alloca i8, align 1
  %9 = alloca i32, align 4
  %10 = alloca i32, align 4
  %11 = alloca i32, align 4
  %12 = alloca i32, align 4
  store ptr %0, ptr %7, align 8
  store i8 %1, ptr %8, align 1
  store i32 %2, ptr %9, align 4
  store i32 %3, ptr %10, align 4
  store i32 %4, ptr %11, align 4
  store i32 %5, ptr %12, align 4
  %13 = load ptr, ptr %7, align 8
  store ptr getelementptr inbounds inrange(-16, 8) ({ [3 x ptr] }, ptr @_ZTVN16G1MonotonicArena12AllocOptionsE, i32 0, i32 0, i32 2), ptr %13, align 8
  %14 = getelementptr inbounds %"class.G1MonotonicArena::AllocOptions", ptr %13, i32 0, i32 1
  %15 = load i8, ptr %8, align 1
  store i8 %15, ptr %14, align 8
  %16 = getelementptr inbounds %"class.G1MonotonicArena::AllocOptions", ptr %13, i32 0, i32 3
  %17 = load i32, ptr %9, align 4
  %18 = load i32, ptr %12, align 4
  %19 = call noundef i32 @_Z8align_upIjjTnNSt9enable_ifIXcvbsr3std11is_integralIT_EE5valueEiE4typeELi0EES1_S1_T0_(i32 noundef %17, i32 noundef %18)
  store i32 %19, ptr %16, align 4
  %20 = getelementptr inbounds %"class.G1MonotonicArena::AllocOptions", ptr %13, i32 0, i32 4
  %21 = load i32, ptr %10, align 4
  store i32 %21, ptr %20, align 8
  %22 = getelementptr inbounds %"class.G1MonotonicArena::AllocOptions", ptr %13, i32 0, i32 5
  %23 = load i32, ptr %11, align 4
  store i32 %23, ptr %22, align 4
  %24 = getelementptr inbounds %"class.G1MonotonicArena::AllocOptions", ptr %13, i32 0, i32 6
  %25 = load i32, ptr %12, align 4
  store i32 %25, ptr %24, align 8
  ret void
}

; Function Attrs: mustprogress nounwind uwtable
define linkonce_odr hidden noundef i64 @_ZN13G1CardSetHowl13size_in_bytesEm(i64 noundef %0) #1 comdat align 2 {
  %2 = alloca i64, align 8
  store i64 %0, ptr %2, align 8
  %3 = call noundef i64 @_ZN13G1CardSetHowl20header_size_in_bytesEv()
  %4 = load i64, ptr %2, align 8
  %5 = mul i64 8, %4
  %6 = add i64 %3, %5
  ret i64 %6
}

; Function Attrs: mustprogress nounwind uwtable
define linkonce_odr hidden noundef i64 @_ZN15G1CardSetBitMap13size_in_bytesEm(i64 noundef %0) #1 comdat align 2 {
  %2 = alloca i64, align 8
  store i64 %0, ptr %2, align 8
  %3 = call noundef i64 @_ZN15G1CardSetBitMap20header_size_in_bytesEv()
  %4 = load i64, ptr %2, align 8
  %5 = call noundef i64 @_ZN6BitMap18calc_size_in_wordsEm(i64 noundef %4)
  %6 = mul i64 %5, 8
  %7 = add i64 %3, %6
  ret i64 %7
}

; Function Attrs: mustprogress nounwind uwtable
define linkonce_odr hidden noundef i64 @_ZN14G1CardSetArray13size_in_bytesEm(i64 noundef %0) #1 comdat align 2 {
  %2 = alloca i64, align 8
  store i64 %0, ptr %2, align 8
  %3 = call noundef i64 @_ZN14G1CardSetArray20header_size_in_bytesEv()
  %4 = load i64, ptr %2, align 8
  %5 = mul i64 2, %4
  %6 = add i64 %3, %5
  ret i64 %6
}

; Function Attrs: mustprogress nounwind uwtable
define linkonce_odr hidden void @_ZN21G1CardSetAllocOptionsC2Ejjj(ptr noundef nonnull align 8 dereferenceable(28) %0, i32 noundef %1, i32 noundef %2, i32 noundef %3) unnamed_addr #1 comdat align 2 {
  %5 = alloca ptr, align 8
  %6 = alloca i32, align 4
  %7 = alloca i32, align 4
  %8 = alloca i32, align 4
  store ptr %0, ptr %5, align 8
  store i32 %1, ptr %6, align 4
  store i32 %2, ptr %7, align 4
  store i32 %3, ptr %8, align 4
  %9 = load ptr, ptr %5, align 8
  %10 = load i32, ptr %6, align 4
  %11 = load i32, ptr %7, align 4
  %12 = load i32, ptr %8, align 4
  call void @_ZN16G1MonotonicArena12AllocOptionsC2E8MEMFLAGSjjjj(ptr noundef nonnull align 8 dereferenceable(28) %9, i8 noundef zeroext 6, i32 noundef %10, i32 noundef %11, i32 noundef %12, i32 noundef 8)
  store ptr getelementptr inbounds inrange(-16, 8) ({ [3 x ptr] }, ptr @_ZTV21G1CardSetAllocOptions, i32 0, i32 0, i32 2), ptr %9, align 8
  ret void
}

; Function Attrs: mustprogress nounwind uwtable
define linkonce_odr hidden noundef i64 @_ZN19ConcurrentHashTableI24G1CardSetHashTableConfigL8MEMFLAGS6EE13get_node_sizeEv() #1 comdat align 2 {
  ret i64 24
}

; Function Attrs: mustprogress nounwind uwtable
define linkonce_odr hidden noundef i32 @_ZN22G1CardSetConfiguration20num_mem_object_typesEv() #1 comdat align 2 {
  ret i32 4
}

; Function Attrs: mustprogress nounwind uwtable
define hidden void @_ZN22G1CardSetConfiguration27init_card_set_alloc_optionsEv(ptr noundef nonnull align 8 dereferenceable(56) %0) #1 align 2 {
  %2 = alloca ptr, align 8
  store ptr %0, ptr %2, align 8
  %3 = load ptr, ptr %2, align 8
  %4 = call noundef i32 @_ZN22G1CardSetConfiguration20num_mem_object_typesEv()
  %5 = zext i32 %4 to i64
  %6 = mul i64 %5, 32
  %7 = call noundef ptr @_Z12AllocateHeapm8MEMFLAGSN17AllocFailStrategy13AllocFailEnumE(i64 noundef %6, i8 noundef zeroext 5, i32 noundef 0)
  %8 = getelementptr inbounds %class.G1CardSetConfiguration, ptr %3, i32 0, i32 11
  store ptr %7, ptr %8, align 8
  %9 = getelementptr inbounds %class.G1CardSetConfiguration, ptr %3, i32 0, i32 11
  %10 = load ptr, ptr %9, align 8
  %11 = getelementptr inbounds %class.G1CardSetAllocOptions, ptr %10, i64 0
  %12 = call noundef i64 @_ZN19ConcurrentHashTableI24G1CardSetHashTableConfigL8MEMFLAGS6EE13get_node_sizeEv()
  %13 = trunc i64 %12 to i32
  call void @_ZN21G1CardSetAllocOptionsC2Ejjj(ptr noundef nonnull align 8 dereferenceable(28) %11, i32 noundef %13, i32 noundef 8, i32 noundef 2147483647)
  %14 = getelementptr inbounds %class.G1CardSetConfiguration, ptr %3, i32 0, i32 11
  %15 = load ptr, ptr %14, align 8
  %16 = getelementptr inbounds %class.G1CardSetAllocOptions, ptr %15, i64 1
  %17 = getelementptr inbounds %class.G1CardSetConfiguration, ptr %3, i32 0, i32 1
  %18 = load i32, ptr %17, align 4
  %19 = zext i32 %18 to i64
  %20 = call noundef i64 @_ZN14G1CardSetArray13size_in_bytesEm(i64 noundef %19)
  %21 = trunc i64 %20 to i32
  call void @_ZN21G1CardSetAllocOptionsC2Ejjj(ptr noundef nonnull align 8 dereferenceable(28) %16, i32 noundef %21, i32 noundef 2, i32 noundef 256)
  %22 = getelementptr inbounds %class.G1CardSetConfiguration, ptr %3, i32 0, i32 11
  %23 = load ptr, ptr %22, align 8
  %24 = getelementptr inbounds %class.G1CardSetAllocOptions, ptr %23, i64 2
  %25 = getelementptr inbounds %class.G1CardSetConfiguration, ptr %3, i32 0, i32 5
  %26 = load i32, ptr %25, align 4
  %27 = zext i32 %26 to i64
  %28 = call noundef i64 @_ZN15G1CardSetBitMap13size_in_bytesEm(i64 noundef %27)
  %29 = trunc i64 %28 to i32
  call void @_ZN21G1CardSetAllocOptionsC2Ejjj(ptr noundef nonnull align 8 dereferenceable(28) %24, i32 noundef %29, i32 noundef 2, i32 noundef 256)
  %30 = getelementptr inbounds %class.G1CardSetConfiguration, ptr %3, i32 0, i32 11
  %31 = load ptr, ptr %30, align 8
  %32 = getelementptr inbounds %class.G1CardSetAllocOptions, ptr %31, i64 3
  %33 = getelementptr inbounds %class.G1CardSetConfiguration, ptr %3, i32 0, i32 2
  %34 = load i32, ptr %33, align 8
  %35 = zext i32 %34 to i64
  %36 = call noundef i64 @_ZN13G1CardSetHowl13size_in_bytesEm(i64 noundef %35)
  %37 = trunc i64 %36 to i32
  call void @_ZN21G1CardSetAllocOptionsC2Ejjj(ptr noundef nonnull align 8 dereferenceable(28) %32, i32 noundef %37, i32 noundef 2, i32 noundef 256)
  ret void
}