; Function Attrs: mustprogress nounwind uwtable
define hidden void @_ZN22G1CardSetConfiguration27init_card_set_alloc_optionsEv(ptr nocapture noundef nonnull align 8 dereferenceable(56) %0) local_unnamed_addr #1 align 2 {
  %2 = tail call noundef ptr @_Z12AllocateHeapm8MEMFLAGSN17AllocFailStrategy13AllocFailEnumE(i64 noundef 128, i8 noundef zeroext 5, i32 noundef 0) #19
  %3 = getelementptr inbounds i8, ptr %0, i64 48
  store ptr %2, ptr %3, align 8
  %4 = getelementptr inbounds i8, ptr %2, i64 8
  store i8 6, ptr %4, align 8
  %5 = getelementptr inbounds i8, ptr %2, i64 12
  store <4 x i32> <i32 24, i32 8, i32 2147483647, i32 8>, ptr %5, align 4
  store ptr getelementptr inbounds inrange(-16, 8) (i8, ptr @_ZTV21G1CardSetAllocOptions, i64 16), ptr %2, align 8
  %6 = load ptr, ptr %3, align 8
  %7 = getelementptr inbounds i8, ptr %6, i64 32
  %8 = getelementptr inbounds i8, ptr %0, i64 4
  %9 = load i32, ptr %8, align 4
  %10 = shl i32 %9, 1
  %11 = getelementptr inbounds i8, ptr %6, i64 40
  store i8 6, ptr %11, align 8
  %12 = getelementptr inbounds i8, ptr %6, i64 44
  %13 = add i32 %10, 23
  %14 = and i32 %13, -8
  store i32 %14, ptr %12, align 4
  %15 = getelementptr inbounds i8, ptr %6, i64 48
  store i32 2, ptr %15, align 8
  %16 = getelementptr inbounds i8, ptr %6, i64 52
  store i32 256, ptr %16, align 4
  %17 = getelementptr inbounds i8, ptr %6, i64 56
  store i32 8, ptr %17, align 8
  store ptr getelementptr inbounds inrange(-16, 8) (i8, ptr @_ZTV21G1CardSetAllocOptions, i64 16), ptr %7, align 8
  %18 = load ptr, ptr %3, align 8
  %19 = getelementptr inbounds i8, ptr %18, i64 64
  %20 = getelementptr inbounds i8, ptr %0, i64 20
  %21 = load i32, ptr %20, align 4
  %22 = zext i32 %21 to i64
  %23 = add nuw nsw i64 %22, 63
  %24 = lshr i64 %23, 3
  %25 = trunc nuw nsw i64 %24 to i32
  %26 = and i32 %25, 1073741816
  %27 = getelementptr inbounds i8, ptr %18, i64 72
  store i8 6, ptr %27, align 8
  %28 = getelementptr inbounds i8, ptr %18, i64 76
  %29 = add nuw nsw i32 %26, 23
  %30 = and i32 %29, 2147483640
  store i32 %30, ptr %28, align 4
  %31 = getelementptr inbounds i8, ptr %18, i64 80
  store i32 2, ptr %31, align 8
  %32 = getelementptr inbounds i8, ptr %18, i64 84
  store i32 256, ptr %32, align 4
  %33 = getelementptr inbounds i8, ptr %18, i64 88
  store i32 8, ptr %33, align 8
  store ptr getelementptr inbounds inrange(-16, 8) (i8, ptr @_ZTV21G1CardSetAllocOptions, i64 16), ptr %19, align 8
  %34 = load ptr, ptr %3, align 8
  %35 = getelementptr inbounds i8, ptr %34, i64 96
  %36 = getelementptr inbounds i8, ptr %0, i64 8
  %37 = load i32, ptr %36, align 8
  %38 = shl i32 %37, 3
  %39 = getelementptr inbounds i8, ptr %34, i64 104
  store i8 6, ptr %39, align 8
  %40 = getelementptr inbounds i8, ptr %34, i64 108
  %41 = add i32 %38, 23
  %42 = and i32 %41, -8
  store i32 %42, ptr %40, align 4
  %43 = getelementptr inbounds i8, ptr %34, i64 112
  store i32 2, ptr %43, align 8
  %44 = getelementptr inbounds i8, ptr %34, i64 116
  store i32 256, ptr %44, align 4
  %45 = getelementptr inbounds i8, ptr %34, i64 120
  store i32 8, ptr %45, align 8
  store ptr getelementptr inbounds inrange(-16, 8) (i8, ptr @_ZTV21G1CardSetAllocOptions, i64 16), ptr %35, align 8
  ret void
}